target datalayout = "e-m:e-p270:32:32-p271:32:32-p272:64:64-i64:64-i128:128-f80:128-n8:16:32:64-S128"
target triple = "x86_64-pc-linux-gnu"

%union.SOCKETADDRESS = type { %struct.sockaddr_in6 }
%struct.sockaddr_in6 = type { i16, i16, i32, %struct.in6_addr, i32 }
%struct.in6_addr = type { %union.anon }
%union.anon = type { [4 x i32] }

@.str.3 = private unnamed_addr constant [25 x i8] c"java/net/SocketException\00", align 1
@.str.14 = private unnamed_addr constant [27 x i8] c"java/net/ProtocolException\00", align 1
@.str.15 = private unnamed_addr constant [26 x i8] c"java/net/ConnectException\00", align 1
@.str.16 = private unnamed_addr constant [32 x i8] c"java/net/NoRouteToHostException\00", align 1
@.str.17 = private unnamed_addr constant [23 x i8] c"java/net/BindException\00", align 1
@.str.18 = private unnamed_addr constant [15 x i8] c"NioSocketError\00", align 1

; Function Attrs: nounwind uwtable
define internal i32 @handleSocketErrorWithMessage(ptr noundef %0, i32 noundef %1, ptr noundef %2) #0 {
  %4 = alloca i32, align 4
  %5 = alloca ptr, align 8
  %6 = alloca i32, align 4
  %7 = alloca ptr, align 8
  %8 = alloca ptr, align 8
  store ptr %0, ptr %5, align 8
  store i32 %1, ptr %6, align 4
  store ptr %2, ptr %7, align 8
  %9 = load i32, ptr %6, align 4
  switch i32 %9, label %15 [
    i32 115, label %10
    i32 71, label %11
    i32 111, label %12
    i32 110, label %12
    i32 107, label %12
    i32 113, label %13
    i32 98, label %14
    i32 99, label %14
    i32 13, label %14
  ]

10:                                               ; preds = %3
  store i32 0, ptr %4, align 4
  br label %29

11:                                               ; preds = %3
  store ptr @.str.14, ptr %8, align 8
  br label %16

12:                                               ; preds = %3, %3, %3
  store ptr @.str.15, ptr %8, align 8
  br label %16

13:                                               ; preds = %3
  store ptr @.str.16, ptr %8, align 8
  br label %16

14:                                               ; preds = %3, %3, %3
  store ptr @.str.17, ptr %8, align 8
  br label %16

15:                                               ; preds = %3
  store ptr @.str.3, ptr %8, align 8
  br label %16

16:                                               ; preds = %15, %14, %13, %12, %11
  %17 = load i32, ptr %6, align 4
  %18 = call ptr @__errno_location() #4
  store i32 %17, ptr %18, align 4
  %19 = load ptr, ptr %7, align 8
  %20 = icmp eq ptr %19, null
  br i1 %20, label %21, label %24

21:                                               ; preds = %16
  %22 = load ptr, ptr %5, align 8
  %23 = load ptr, ptr %8, align 8
  call void @JNU_ThrowByNameWithLastError(ptr noundef %22, ptr noundef %23, ptr noundef @.str.18)
  br label %28

24:                                               ; preds = %16
  %25 = load ptr, ptr %5, align 8
  %26 = load ptr, ptr %8, align 8
  %27 = load ptr, ptr %7, align 8
  call void @JNU_ThrowByNameWithMessageAndLastError(ptr noundef %25, ptr noundef %26, ptr noundef %27)
  br label %28

28:                                               ; preds = %24, %21
  store i32 -5, ptr %4, align 4
  br label %29

29:                                               ; preds = %28, %10
  %30 = load i32, ptr %4, align 4
  ret i32 %30
}

; Function Attrs: nounwind uwtable
define hidden i32 @handleSocketError(ptr noundef %0, i32 noundef %1) #0 {
  %3 = alloca ptr, align 8
  %4 = alloca i32, align 4
  store ptr %0, ptr %3, align 8
  store i32 %1, ptr %4, align 4
  %5 = load ptr, ptr %3, align 8
  %6 = load i32, ptr %4, align 4
  %7 = call i32 @handleSocketErrorWithMessage(ptr noundef %5, i32 noundef %6, ptr noundef null)
  ret i32 %7
}

; Function Attrs: nounwind uwtable
define void @Java_sun_nio_ch_Net_bind0(ptr noundef %0, ptr noundef %1, ptr noundef %2, i8 noundef zeroext %3, i8 noundef zeroext %4, ptr noundef %5, i32 noundef %6) #0 {
  %8 = alloca ptr, align 8
  %9 = alloca ptr, align 8
  %10 = alloca ptr, align 8
  %11 = alloca i8, align 1
  %12 = alloca i8, align 1
  %13 = alloca ptr, align 8
  %14 = alloca i32, align 4
  %15 = alloca %union.SOCKETADDRESS, align 4
  %16 = alloca i32, align 4
  %17 = alloca i32, align 4
  store ptr %0, ptr %8, align 8
  store ptr %1, ptr %9, align 8
  store ptr %2, ptr %10, align 8
  store i8 %3, ptr %11, align 1
  store i8 %4, ptr %12, align 1
  store ptr %5, ptr %13, align 8
  store i32 %6, ptr %14, align 4
  store i32 0, ptr %16, align 4
  store i32 0, ptr %17, align 4
  %18 = load ptr, ptr %8, align 8
  %19 = load ptr, ptr %13, align 8
  %20 = load i32, ptr %14, align 4
  %21 = load i8, ptr %11, align 1
  %22 = call i32 @NET_InetAddressToSockaddr(ptr noundef %18, ptr noundef %19, i32 noundef %20, ptr noundef %15, ptr noundef %16, i8 noundef zeroext %21)
  %23 = icmp ne i32 %22, 0
  br i1 %23, label %24, label %25

24:                                               ; preds = %7
  br label %38

25:                                               ; preds = %7
  %26 = load ptr, ptr %8, align 8
  %27 = load ptr, ptr %10, align 8
  %28 = call i32 @fdval(ptr noundef %26, ptr noundef %27)
  %29 = load i32, ptr %16, align 4
  %30 = call i32 @NET_Bind(i32 noundef %28, ptr noundef %15, i32 noundef %29)
  store i32 %30, ptr %17, align 4
  %31 = load i32, ptr %17, align 4
  %32 = icmp ne i32 %31, 0
  br i1 %32, label %33, label %38

33:                                               ; preds = %25
  %34 = load ptr, ptr %8, align 8
  %35 = call ptr @__errno_location() #4
  %36 = load i32, ptr %35, align 4
  %37 = call i32 @handleSocketError(ptr noundef %34, i32 noundef %36)
  br label %38

38:                                               ; preds = %33, %25, %24
  ret void
}