; Function Attrs: nounwind uwtable
define void @Java_sun_nio_ch_Net_bind0(ptr noundef %0, ptr nocapture noundef readnone %1, ptr noundef %2, i8 noundef zeroext %3, i8 noundef zeroext %4, ptr noundef %5, i32 noundef %6) local_unnamed_addr #0 {
  %8 = alloca %union.SOCKETADDRESS, align 4
  %9 = alloca i32, align 4
  store i32 0, ptr %9, align 4
  %10 = call i32 @NET_InetAddressToSockaddr(ptr noundef %0, ptr noundef %5, i32 noundef %6, ptr noundef nonnull %8, ptr noundef nonnull %9, i8 noundef zeroext %3) #7
  %.not = icmp eq i32 %10, 0
  br i1 %.not, label %11, label %handleSocketError.exit

11:                                               ; preds = %7
  %12 = call i32 @fdval(ptr noundef %0, ptr noundef %2) #7
  %13 = load i32, ptr %9, align 4
  %14 = call i32 @NET_Bind(i32 noundef %12, ptr noundef nonnull %8, i32 noundef %13) #7
  %.not7 = icmp eq i32 %14, 0
  br i1 %.not7, label %handleSocketError.exit, label %15

15:                                               ; preds = %11
  %16 = tail call ptr @__errno_location() #6
  %17 = load i32, ptr %16, align 4
  switch i32 %17, label %21 [
    i32 115, label %handleSocketError.exit
    i32 71, label %22
    i32 111, label %18
    i32 110, label %18
    i32 107, label %18
    i32 113, label %19
    i32 98, label %20
    i32 99, label %20
    i32 13, label %20
  ]

18:                                               ; preds = %15, %15, %15
  br label %22

19:                                               ; preds = %15
  br label %22

20:                                               ; preds = %15, %15, %15
  br label %22

21:                                               ; preds = %15
  br label %22

22:                                               ; preds = %21, %20, %19, %18, %15
  %.0.i.i = phi ptr [ @.str.3, %21 ], [ @.str.17, %20 ], [ @.str.16, %19 ], [ @.str.15, %18 ], [ @.str.14, %15 ]
  call void @JNU_ThrowByNameWithLastError(ptr noundef %0, ptr noundef nonnull %.0.i.i, ptr noundef nonnull @.str.18) #7
  br label %handleSocketError.exit

handleSocketError.exit:                           ; preds = %22, %15, %7, %11
  ret void
}